target datalayout = "e-m:e-p270:32:32-p271:32:32-p272:64:64-i64:64-i128:128-f80:128-n8:16:32:64-S128"
target triple = "x86_64-pc-linux-gnu"

%class.QString = type { %struct.QArrayDataPointer }
%struct.QArrayDataPointer = type { ptr, ptr, i64 }
%class.VoipCallsDialog = type { %class.WiresharkDialog.base, i8, ptr, ptr, ptr, ptr, ptr, %struct._voip_calls_tapinfo, ptr, ptr, ptr, ptr, ptr, i8, ptr }
%class.WiresharkDialog.base = type <{ %class.GeometryStateDialog, ptr, i8, [7 x i8], %class.QString, %class.QList, i32, i8 }>
%class.GeometryStateDialog = type { %class.QDialog, %class.QString }
%class.QDialog = type { %class.QWidget }
%class.QWidget = type { %class.QObject, %class.QPaintDevice.base, ptr }
%class.QObject = type { ptr, %class.QScopedPointer }
%class.QScopedPointer = type { ptr }
%class.QPaintDevice.base = type <{ ptr, i16 }>
%class.QList = type { %struct.QArrayDataPointer.0 }
%struct.QArrayDataPointer.0 = type { ptr, ptr, i64 }
%struct._voip_calls_tapinfo = type { ptr, ptr, ptr, ptr, i32, ptr, [1 x ptr], i32, ptr, i32, i32, i32, ptr, ptr, i32, ptr, i32, i8, i32, ptr, i32, i32, i32, i8, i32, ptr, ptr, ptr, i8, i32, i32, i32, i16, i32, i32, i32, i32, i32, i32, i32, i32, i32 }
%class.QModelIndex = type { i32, i32, i64, ptr }
%class.QList.16 = type { %struct.QArrayDataPointer.19 }
%struct.QArrayDataPointer.19 = type { ptr, ptr, i64 }
%class.QVariant = type { %"struct.QVariant::Private" }
%"struct.QVariant::Private" = type { %union.anon.20, i64 }
%union.anon.20 = type { ptr, [16 x i8] }

; Function Attrs: mustprogress nounwind uwtable
define linkonce_odr noundef ptr @_ZN17QArrayDataPointerI8QVariantE4dataEv(ptr noundef nonnull align 8 dereferenceable(24) %0) #5 comdat align 2 {
  %2 = alloca ptr, align 8
  store ptr %0, ptr %2, align 8
  %3 = load ptr, ptr %2, align 8
  %4 = getelementptr inbounds %struct.QArrayDataPointer.19, ptr %3, i32 0, i32 1
  %5 = load ptr, ptr %4, align 8
  ret ptr %5
}

; Function Attrs: mustprogress nounwind uwtable
define linkonce_odr void @_ZN8QVariant7PrivateUt_C2Ev(ptr noundef nonnull align 8 dereferenceable(24) %0) unnamed_addr #5 comdat align 2 {
  %2 = alloca ptr, align 8
  store ptr %0, ptr %2, align 8
  %3 = load ptr, ptr %2, align 8
  %4 = getelementptr inbounds [24 x i8], ptr %3, i64 0, i64 0
  %5 = getelementptr inbounds i8, ptr %4, i64 24
  br label %6

6:                                                ; preds = %6, %1
  %7 = phi ptr [ %4, %1 ], [ %8, %6 ]
  store i8 0, ptr %7, align 1
  %8 = getelementptr inbounds i8, ptr %7, i64 1
  %9 = icmp eq ptr %8, %5
  br i1 %9, label %10, label %6

10:                                               ; preds = %6
  ret void
}

; Function Attrs: mustprogress nounwind uwtable
define linkonce_odr noundef ptr @_ZN17QArrayDataPointerI8QVariantE3endEv(ptr noundef nonnull align 8 dereferenceable(24) %0) #5 comdat align 2 {
  %2 = alloca ptr, align 8
  store ptr %0, ptr %2, align 8
  %3 = load ptr, ptr %2, align 8
  %4 = call noundef ptr @_ZN17QArrayDataPointerI8QVariantE4dataEv(ptr noundef nonnull align 8 dereferenceable(24) %3) #17
  %5 = getelementptr inbounds %struct.QArrayDataPointer.19, ptr %3, i32 0, i32 2
  %6 = load i64, ptr %5, align 8
  %7 = getelementptr %class.QVariant, ptr %4, i64 %6
  ret ptr %7
}

; Function Attrs: mustprogress nounwind uwtable
define linkonce_odr noundef ptr @_ZN17QArrayDataPointerI8QVariantEptEv(ptr noundef nonnull align 8 dereferenceable(24) %0) #5 comdat align 2 {
  %2 = alloca ptr, align 8
  store ptr %0, ptr %2, align 8
  %3 = load ptr, ptr %2, align 8
  ret ptr %3
}

; Function Attrs: mustprogress nounwind uwtable
define linkonce_odr void @_ZN8QVariant7PrivateC2Ev(ptr noundef nonnull align 8 dereferenceable(32) %0) unnamed_addr #5 comdat align 2 {
  %2 = alloca ptr, align 8
  store ptr %0, ptr %2, align 8
  %3 = load ptr, ptr %2, align 8
  %4 = getelementptr inbounds %"struct.QVariant::Private", ptr %3, i32 0, i32 0
  call void @_ZN8QVariant7PrivateUt_C2Ev(ptr noundef nonnull align 8 dereferenceable(24) %4) #17
  %5 = getelementptr inbounds %"struct.QVariant::Private", ptr %3, i32 0, i32 1
  %6 = load i64, ptr %5, align 8
  %7 = and i64 %6, -2
  %8 = or i64 %7, 0
  store i64 %8, ptr %5, align 8
  %9 = getelementptr inbounds %"struct.QVariant::Private", ptr %3, i32 0, i32 1
  %10 = load i64, ptr %9, align 8
  %11 = and i64 %10, -3
  %12 = or i64 %11, 2
  store i64 %12, ptr %9, align 8
  %13 = getelementptr inbounds %"struct.QVariant::Private", ptr %3, i32 0, i32 1
  %14 = load i64, ptr %13, align 8
  %15 = and i64 %14, 3
  %16 = or i64 %15, 0
  store i64 %16, ptr %13, align 8
  ret void
}

; Function Attrs: mustprogress uwtable
define linkonce_odr noundef nonnull align 8 dereferenceable(32) ptr @_ZN5QListI8QVariantE11emplaceBackIJS0_EEERS0_DpOT_(ptr noundef nonnull align 8 dereferenceable(24) %0, ptr noundef nonnull align 8 dereferenceable(32) %1) #0 comdat align 2 {
  %3 = alloca ptr, align 8
  %4 = alloca ptr, align 8
  store ptr %0, ptr %3, align 8
  store ptr %1, ptr %4, align 8
  %5 = load ptr, ptr %3, align 8
  %6 = getelementptr inbounds %class.QList.16, ptr %5, i32 0, i32 0
  %7 = call noundef ptr @_ZN17QArrayDataPointerI8QVariantEptEv(ptr noundef nonnull align 8 dereferenceable(24) %6) #17
  %8 = getelementptr inbounds %class.QList.16, ptr %5, i32 0, i32 0
  %9 = call noundef ptr @_ZN17QArrayDataPointerI8QVariantEptEv(ptr noundef nonnull align 8 dereferenceable(24) %8) #17
  %10 = getelementptr inbounds %struct.QArrayDataPointer.19, ptr %9, i32 0, i32 2
  %11 = load i64, ptr %10, align 8
  %12 = load ptr, ptr %4, align 8
  call void @_ZN9QtPrivate16QMovableArrayOpsI8QVariantE7emplaceIJS1_EEEvxDpOT_(ptr noundef nonnull align 8 dereferenceable(24) %7, i64 noundef %11, ptr noundef nonnull align 8 dereferenceable(32) %12)
  %13 = getelementptr inbounds %class.QList.16, ptr %5, i32 0, i32 0
  %14 = call noundef ptr @_ZN17QArrayDataPointerI8QVariantE3endEv(ptr noundef nonnull align 8 dereferenceable(24) %13) #17
  %15 = getelementptr %class.QVariant, ptr %14, i64 -1
  ret ptr %15
}

; Function Attrs: mustprogress nounwind uwtable
define linkonce_odr void @_ZN8QVariantC2Ev(ptr noundef nonnull align 8 dereferenceable(32) %0) unnamed_addr #5 comdat align 2 {
  %2 = alloca ptr, align 8
  store ptr %0, ptr %2, align 8
  %3 = load ptr, ptr %2, align 8
  %4 = getelementptr inbounds %class.QVariant, ptr %3, i32 0, i32 0
  call void @_ZN8QVariant7PrivateC2Ev(ptr noundef nonnull align 8 dereferenceable(32) %4) #17
  ret void
}

; Function Attrs: mustprogress uwtable
define linkonce_odr void @_ZN5QListI8QVariantE6appendEOS0_(ptr noundef nonnull align 8 dereferenceable(24) %0, ptr noundef nonnull align 8 dereferenceable(32) %1) #0 comdat align 2 {
  %3 = alloca ptr, align 8
  %4 = alloca ptr, align 8
  store ptr %0, ptr %3, align 8
  store ptr %1, ptr %4, align 8
  %5 = load ptr, ptr %3, align 8
  %6 = load ptr, ptr %4, align 8
  %7 = call noundef nonnull align 8 dereferenceable(32) ptr @_ZN5QListI8QVariantE11emplaceBackIJS0_EEERS0_DpOT_(ptr noundef nonnull align 8 dereferenceable(24) %5, ptr noundef nonnull align 8 dereferenceable(32) %6)
  ret void
}

; Function Attrs: mustprogress nounwind uwtable
define linkonce_odr void @_ZN17QArrayDataPointerI8QVariantEC2Ev(ptr noundef nonnull align 8 dereferenceable(24) %0) unnamed_addr #5 comdat align 2 {
  %2 = alloca ptr, align 8
  store ptr %0, ptr %2, align 8
  %3 = load ptr, ptr %2, align 8
  %4 = getelementptr inbounds %struct.QArrayDataPointer.19, ptr %3, i32 0, i32 0
  store ptr null, ptr %4, align 8
  %5 = getelementptr inbounds %struct.QArrayDataPointer.19, ptr %3, i32 0, i32 1
  store ptr null, ptr %5, align 8
  %6 = getelementptr inbounds %struct.QArrayDataPointer.19, ptr %3, i32 0, i32 2
  store i64 0, ptr %6, align 8
  ret void
}

; Function Attrs: mustprogress uwtable
define linkonce_odr void @_ZNK11QModelIndex4dataEi(ptr dead_on_unwind noalias writable sret(%class.QVariant) align 8 %0, ptr noundef nonnull align 8 dereferenceable(24) %1, i32 noundef %2) #0 comdat align 2 {
  %4 = alloca ptr, align 8
  %5 = alloca ptr, align 8
  %6 = alloca i32, align 4
  store ptr %0, ptr %4, align 8
  store ptr %1, ptr %5, align 8
  store i32 %2, ptr %6, align 4
  %7 = load ptr, ptr %5, align 8
  %8 = getelementptr inbounds %class.QModelIndex, ptr %7, i32 0, i32 3
  %9 = load ptr, ptr %8, align 8
  %10 = icmp ne ptr %9, null
  br i1 %10, label %11, label %18

11:                                               ; preds = %3
  %12 = getelementptr inbounds %class.QModelIndex, ptr %7, i32 0, i32 3
  %13 = load ptr, ptr %12, align 8
  %14 = load i32, ptr %6, align 4
  %15 = load ptr, ptr %13, align 8
  %16 = getelementptr inbounds ptr, ptr %15, i64 18
  %17 = load ptr, ptr %16, align 8
  call void %17(ptr dead_on_unwind writable sret(%class.QVariant) align 8 %0, ptr noundef nonnull align 8 dereferenceable(16) %13, ptr noundef nonnull align 8 dereferenceable(24) %7, i32 noundef %14)
  br label %19

18:                                               ; preds = %3
  call void @_ZN8QVariantC2Ev(ptr noundef nonnull align 8 dereferenceable(32) %0) #17
  br label %19

19:                                               ; preds = %18, %11
  ret void
}

; Function Attrs: mustprogress uwtable
define linkonce_odr noundef nonnull align 8 dereferenceable(24) ptr @_ZN5QListI8QVariantElsEOS0_(ptr noundef nonnull align 8 dereferenceable(24) %0, ptr noundef nonnull align 8 dereferenceable(32) %1) #0 comdat align 2 {
  %3 = alloca ptr, align 8
  %4 = alloca ptr, align 8
  store ptr %0, ptr %3, align 8
  store ptr %1, ptr %4, align 8
  %5 = load ptr, ptr %3, align 8
  %6 = load ptr, ptr %4, align 8
  call void @_ZN5QListI8QVariantE6appendEOS0_(ptr noundef nonnull align 8 dereferenceable(24) %5, ptr noundef nonnull align 8 dereferenceable(32) %6)
  ret ptr %5
}

; Function Attrs: mustprogress nounwind uwtable
define linkonce_odr void @_ZN11QModelIndexC2Ev(ptr noundef nonnull align 8 dereferenceable(24) %0) unnamed_addr #5 comdat align 2 {
  %2 = alloca ptr, align 8
  store ptr %0, ptr %2, align 8
  %3 = load ptr, ptr %2, align 8
  %4 = getelementptr inbounds %class.QModelIndex, ptr %3, i32 0, i32 0
  store i32 -1, ptr %4, align 8
  %5 = getelementptr inbounds %class.QModelIndex, ptr %3, i32 0, i32 1
  store i32 -1, ptr %5, align 4
  %6 = getelementptr inbounds %class.QModelIndex, ptr %3, i32 0, i32 2
  store i64 0, ptr %6, align 8
  %7 = getelementptr inbounds %class.QModelIndex, ptr %3, i32 0, i32 3
  store ptr null, ptr %7, align 8
  ret void
}

; Function Attrs: mustprogress nounwind uwtable
define linkonce_odr void @_ZN5QListI8QVariantEC2Ev(ptr noundef nonnull align 8 dereferenceable(24) %0) unnamed_addr #5 comdat align 2 {
  %2 = alloca ptr, align 8
  store ptr %0, ptr %2, align 8
  %3 = load ptr, ptr %2, align 8
  %4 = getelementptr inbounds %class.QList.16, ptr %3, i32 0, i32 0
  call void @_ZN17QArrayDataPointerI8QVariantEC2Ev(ptr noundef nonnull align 8 dereferenceable(24) %4) #17
  ret void
}

; Function Attrs: mustprogress uwtable
define void @_ZNK15VoipCallsDialog13streamRowDataEi(ptr dead_on_unwind noalias writable sret(%class.QList.16) align 8 %0, ptr noundef nonnull align 8 dereferenceable(480) %1, i32 noundef %2) #0 align 2 personality ptr @__gxx_personality_v0 {
  %4 = alloca ptr, align 8
  %5 = alloca ptr, align 8
  %6 = alloca i32, align 4
  %7 = alloca i1, align 1
  %8 = alloca %class.QModelIndex, align 8
  %9 = alloca ptr, align 8
  %10 = alloca i32, align 4
  %11 = alloca i32, align 4
  %12 = alloca i32, align 4
  %13 = alloca %class.QModelIndex, align 8
  %14 = alloca %class.QVariant, align 8
  %15 = alloca %class.QVariant, align 8
  %16 = alloca %class.QModelIndex, align 8
  %17 = alloca %class.QModelIndex, align 8
  store ptr %0, ptr %4, align 8
  store ptr %1, ptr %5, align 8
  store i32 %2, ptr %6, align 4
  %18 = load ptr, ptr %5, align 8
  store i1 false, ptr %7, align 1
  call void @_ZN5QListI8QVariantEC2Ev(ptr noundef nonnull align 8 dereferenceable(24) %0) #17
  %19 = load i32, ptr %6, align 4
  %20 = getelementptr inbounds %class.VoipCallsDialog, ptr %18, i32 0, i32 5
  %21 = load ptr, ptr %20, align 8
  call void @_ZN11QModelIndexC2Ev(ptr noundef nonnull align 8 dereferenceable(24) %8) #17
  %22 = load ptr, ptr %21, align 8
  %23 = getelementptr inbounds ptr, ptr %22, i64 15
  %24 = load ptr, ptr %23, align 8
  %25 = invoke noundef i32 %24(ptr noundef nonnull align 8 dereferenceable(16) %21, ptr noundef nonnull align 8 dereferenceable(24) %8)
          to label %26 unwind label %29

26:                                               ; preds = %3
  %27 = icmp sge i32 %19, %25
  br i1 %27, label %28, label %33

28:                                               ; preds = %26
  store i1 true, ptr %7, align 1
  store i32 1, ptr %11, align 4
  br label %82

29:                                               ; preds = %69, %61, %47, %34, %3
  %30 = landingpad { ptr, i32 }
          cleanup
  %31 = extractvalue { ptr, i32 } %30, 0
  store ptr %31, ptr %9, align 8
  %32 = extractvalue { ptr, i32 } %30, 1
  store i32 %32, ptr %10, align 4
  br label %86

33:                                               ; preds = %26
  store i32 0, ptr %12, align 4
  br label %34

34:                                               ; preds = %78, %33
  %35 = load i32, ptr %12, align 4
  %36 = getelementptr inbounds %class.VoipCallsDialog, ptr %18, i32 0, i32 5
  %37 = load ptr, ptr %36, align 8
  call void @_ZN11QModelIndexC2Ev(ptr noundef nonnull align 8 dereferenceable(24) %13) #17
  %38 = load ptr, ptr %37, align 8
  %39 = getelementptr inbounds ptr, ptr %38, i64 16
  %40 = load ptr, ptr %39, align 8
  %41 = invoke noundef i32 %40(ptr noundef nonnull align 8 dereferenceable(16) %37, ptr noundef nonnull align 8 dereferenceable(24) %13)
          to label %42 unwind label %29

42:                                               ; preds = %34
  %43 = icmp slt i32 %35, %41
  br i1 %43, label %44, label %81

44:                                               ; preds = %42
  %45 = load i32, ptr %6, align 4
  %46 = icmp slt i32 %45, 0
  br i1 %46, label %47, label %61

47:                                               ; preds = %44
  %48 = getelementptr inbounds %class.VoipCallsDialog, ptr %18, i32 0, i32 5
  %49 = load ptr, ptr %48, align 8
  %50 = load i32, ptr %12, align 4
  %51 = load ptr, ptr %49, align 8
  %52 = getelementptr inbounds ptr, ptr %51, i64 20
  %53 = load ptr, ptr %52, align 8
  invoke void %53(ptr dead_on_unwind writable sret(%class.QVariant) align 8 %14, ptr noundef nonnull align 8 dereferenceable(16) %49, i32 noundef %50, i32 noundef 1, i32 noundef 0)
          to label %54 unwind label %29

54:                                               ; preds = %47
  %55 = invoke noundef nonnull align 8 dereferenceable(24) ptr @_ZN5QListI8QVariantElsEOS0_(ptr noundef nonnull align 8 dereferenceable(24) %0, ptr noundef nonnull align 8 dereferenceable(32) %14)
          to label %56 unwind label %57

56:                                               ; preds = %54
  call void @_ZN8QVariantD1Ev(ptr noundef nonnull align 8 dereferenceable(32) %14) #17
  br label %77

57:                                               ; preds = %54
  %58 = landingpad { ptr, i32 }
          cleanup
  %59 = extractvalue { ptr, i32 } %58, 0
  store ptr %59, ptr %9, align 8
  %60 = extractvalue { ptr, i32 } %58, 1
  store i32 %60, ptr %10, align 4
  call void @_ZN8QVariantD1Ev(ptr noundef nonnull align 8 dereferenceable(32) %14) #17
  br label %86

61:                                               ; preds = %44
  %62 = getelementptr inbounds %class.VoipCallsDialog, ptr %18, i32 0, i32 5
  %63 = load ptr, ptr %62, align 8
  %64 = load i32, ptr %6, align 4
  %65 = load i32, ptr %12, align 4
  call void @_ZN11QModelIndexC2Ev(ptr noundef nonnull align 8 dereferenceable(24) %17) #17
  %66 = load ptr, ptr %63, align 8
  %67 = getelementptr inbounds ptr, ptr %66, i64 12
  %68 = load ptr, ptr %67, align 8
  invoke void %68(ptr dead_on_unwind writable sret(%class.QModelIndex) align 8 %16, ptr noundef nonnull align 8 dereferenceable(16) %63, i32 noundef %64, i32 noundef %65, ptr noundef nonnull align 8 dereferenceable(24) %17)
          to label %69 unwind label %29

69:                                               ; preds = %61
  invoke void @_ZNK11QModelIndex4dataEi(ptr dead_on_unwind writable sret(%class.QVariant) align 8 %15, ptr noundef nonnull align 8 dereferenceable(24) %16, i32 noundef 0)
          to label %70 unwind label %29

70:                                               ; preds = %69
  %71 = invoke noundef nonnull align 8 dereferenceable(24) ptr @_ZN5QListI8QVariantElsEOS0_(ptr noundef nonnull align 8 dereferenceable(24) %0, ptr noundef nonnull align 8 dereferenceable(32) %15)
          to label %72 unwind label %73

72:                                               ; preds = %70
  call void @_ZN8QVariantD1Ev(ptr noundef nonnull align 8 dereferenceable(32) %15) #17
  br label %77

73:                                               ; preds = %70
  %74 = landingpad { ptr, i32 }
          cleanup
  %75 = extractvalue { ptr, i32 } %74, 0
  store ptr %75, ptr %9, align 8
  %76 = extractvalue { ptr, i32 } %74, 1
  store i32 %76, ptr %10, align 4
  call void @_ZN8QVariantD1Ev(ptr noundef nonnull align 8 dereferenceable(32) %15) #17
  br label %86

77:                                               ; preds = %72, %56
  br label %78

78:                                               ; preds = %77
  %79 = load i32, ptr %12, align 4
  %80 = add i32 %79, 1
  store i32 %80, ptr %12, align 4
  br label %34, !llvm.loop !15

81:                                               ; preds = %42
  store i1 true, ptr %7, align 1
  store i32 1, ptr %11, align 4
  br label %82

82:                                               ; preds = %81, %28
  %83 = load i1, ptr %7, align 1
  br i1 %83, label %85, label %84

84:                                               ; preds = %82
  call void @_ZN5QListI8QVariantED2Ev(ptr noundef nonnull align 8 dereferenceable(24) %0) #17
  br label %85

85:                                               ; preds = %84, %82
  ret void

86:                                               ; preds = %73, %57, %29
  call void @_ZN5QListI8QVariantED2Ev(ptr noundef nonnull align 8 dereferenceable(24) %0) #17
  br label %87

87:                                               ; preds = %86
  %88 = load ptr, ptr %9, align 8
  %89 = load i32, ptr %10, align 4
  %90 = insertvalue { ptr, i32 } poison, ptr %88, 0
  %91 = insertvalue { ptr, i32 } %90, i32 %89, 1
  resume { ptr, i32 } %91
}