; Function Attrs: mustprogress uwtable
define void @_ZNK15VoipCallsDialog13streamRowDataEi(ptr dead_on_unwind noalias writable sret(%class.QList.16) align 8 %0, ptr nocapture noundef nonnull readonly align 8 dereferenceable(480) %1, i32 noundef %2) local_unnamed_addr #0 align 2 personality ptr @__gxx_personality_v0 {
  %4 = alloca %class.QModelIndex, align 8
  %5 = alloca %class.QModelIndex, align 8
  %6 = alloca %class.QVariant, align 8
  %7 = alloca %class.QVariant, align 8
  %8 = alloca %class.QModelIndex, align 8
  %9 = alloca %class.QModelIndex, align 8
  tail call void @llvm.memset.p0.i64(ptr noundef nonnull align 8 dereferenceable(24) %0, i8 0, i64 24, i1 false)
  %10 = getelementptr inbounds i8, ptr %1, i64 160
  %11 = load ptr, ptr %10, align 8
  store i32 -1, ptr %4, align 8
  %12 = getelementptr inbounds i8, ptr %4, i64 4
  store i32 -1, ptr %12, align 4
  %13 = getelementptr inbounds i8, ptr %4, i64 8
  call void @llvm.memset.p0.i64(ptr noundef nonnull align 8 dereferenceable(16) %13, i8 0, i64 16, i1 false)
  %14 = load ptr, ptr %11, align 8
  %15 = getelementptr inbounds i8, ptr %14, i64 120
  %16 = load ptr, ptr %15, align 8
  %17 = invoke noundef i32 %16(ptr noundef nonnull align 8 dereferenceable(16) %11, ptr noundef nonnull align 8 dereferenceable(24) %4)
          to label %18 unwind label %.loopexit.split-lp

18:                                               ; preds = %3
  %.not = icmp sgt i32 %17, %2
  br i1 %.not, label %.preheader, label %.loopexit17

.preheader:                                       ; preds = %18
  %19 = getelementptr inbounds i8, ptr %5, i64 4
  %20 = getelementptr inbounds i8, ptr %5, i64 8
  %21 = icmp slt i32 %2, 0
  %22 = getelementptr inbounds i8, ptr %9, i64 4
  %23 = getelementptr inbounds i8, ptr %9, i64 8
  %24 = getelementptr inbounds i8, ptr %8, i64 16
  %25 = getelementptr inbounds i8, ptr %7, i64 24
  %26 = getelementptr inbounds i8, ptr %0, i64 16
  br i1 %21, label %.preheader.split.us, label %.preheader.split

.preheader.split.us:                              ; preds = %.preheader, %_ZN5QListI8QVariantElsEOS0_.exit.us
  %.0.us = phi i32 [ %41, %_ZN5QListI8QVariantElsEOS0_.exit.us ], [ 0, %.preheader ]
  %27 = load ptr, ptr %10, align 8
  store i32 -1, ptr %5, align 8
  store i32 -1, ptr %19, align 4
  call void @llvm.memset.p0.i64(ptr noundef nonnull align 8 dereferenceable(16) %20, i8 0, i64 16, i1 false)
  %28 = load ptr, ptr %27, align 8
  %29 = getelementptr inbounds i8, ptr %28, i64 128
  %30 = load ptr, ptr %29, align 8
  %31 = invoke noundef i32 %30(ptr noundef nonnull align 8 dereferenceable(16) %27, ptr noundef nonnull align 8 dereferenceable(24) %5)
          to label %32 unwind label %.loopexit.split.us

32:                                               ; preds = %.preheader.split.us
  %33 = icmp slt i32 %.0.us, %31
  br i1 %33, label %34, label %.loopexit17

34:                                               ; preds = %32
  %35 = load ptr, ptr %10, align 8
  %36 = load ptr, ptr %35, align 8
  %37 = getelementptr inbounds i8, ptr %36, i64 160
  %38 = load ptr, ptr %37, align 8
  invoke void %38(ptr dead_on_unwind nonnull writable sret(%class.QVariant) align 8 %6, ptr noundef nonnull align 8 dereferenceable(16) %35, i32 noundef %.0.us, i32 noundef 1, i32 noundef 0)
          to label %39 unwind label %.loopexit.split.us

39:                                               ; preds = %34
  %40 = load i64, ptr %26, align 8
  invoke void @_ZN9QtPrivate16QMovableArrayOpsI8QVariantE7emplaceIJS1_EEEvxDpOT_(ptr noundef nonnull align 8 dereferenceable(24) %0, i64 noundef %40, ptr noundef nonnull align 8 dereferenceable(32) %6)
          to label %_ZN5QListI8QVariantElsEOS0_.exit.us unwind label %.split.us

_ZN5QListI8QVariantElsEOS0_.exit.us:              ; preds = %39
  call void @_ZN8QVariantD1Ev(ptr noundef nonnull align 8 dereferenceable(32) %6) #19
  %41 = add nuw nsw i32 %.0.us, 1
  br label %.preheader.split.us, !llvm.loop !46

.loopexit.split.us:                               ; preds = %34, %.preheader.split.us
  %lpad.loopexit.us = landingpad { ptr, i32 }
          cleanup
  br label %.loopexit

.split.us:                                        ; preds = %39
  %42 = landingpad { ptr, i32 }
          cleanup
  call void @_ZN8QVariantD1Ev(ptr noundef nonnull align 8 dereferenceable(32) %6) #19
  br label %.loopexit

.loopexit.split:                                  ; preds = %.preheader.split, %50, %57
  %lpad.loopexit = landingpad { ptr, i32 }
          cleanup
  br label %.loopexit

.loopexit.split-lp:                               ; preds = %3
  %lpad.loopexit.split-lp = landingpad { ptr, i32 }
          cleanup
  br label %.loopexit

.preheader.split:                                 ; preds = %.preheader, %_ZN5QListI8QVariantElsEOS0_.exit16
  %.0 = phi i32 [ %63, %_ZN5QListI8QVariantElsEOS0_.exit16 ], [ 0, %.preheader ]
  %43 = load ptr, ptr %10, align 8
  store i32 -1, ptr %5, align 8
  store i32 -1, ptr %19, align 4
  call void @llvm.memset.p0.i64(ptr noundef nonnull align 8 dereferenceable(16) %20, i8 0, i64 16, i1 false)
  %44 = load ptr, ptr %43, align 8
  %45 = getelementptr inbounds i8, ptr %44, i64 128
  %46 = load ptr, ptr %45, align 8
  %47 = invoke noundef i32 %46(ptr noundef nonnull align 8 dereferenceable(16) %43, ptr noundef nonnull align 8 dereferenceable(24) %5)
          to label %48 unwind label %.loopexit.split

48:                                               ; preds = %.preheader.split
  %49 = icmp slt i32 %.0, %47
  br i1 %49, label %50, label %.loopexit17

50:                                               ; preds = %48
  %51 = load ptr, ptr %10, align 8
  store i32 -1, ptr %9, align 8
  store i32 -1, ptr %22, align 4
  call void @llvm.memset.p0.i64(ptr noundef nonnull align 8 dereferenceable(16) %23, i8 0, i64 16, i1 false)
  %52 = load ptr, ptr %51, align 8
  %53 = getelementptr inbounds i8, ptr %52, i64 96
  %54 = load ptr, ptr %53, align 8
  invoke void %54(ptr dead_on_unwind nonnull writable sret(%class.QModelIndex) align 8 %8, ptr noundef nonnull align 8 dereferenceable(16) %51, i32 noundef %2, i32 noundef %.0, ptr noundef nonnull align 8 dereferenceable(24) %9)
          to label %55 unwind label %.loopexit.split

55:                                               ; preds = %50
  call void @llvm.experimental.noalias.scope.decl(metadata !47)
  %56 = load ptr, ptr %24, align 8, !noalias !47
  %.not.i = icmp eq ptr %56, null
  br i1 %.not.i, label %61, label %57

57:                                               ; preds = %55
  %58 = load ptr, ptr %56, align 8, !noalias !47
  %59 = getelementptr inbounds i8, ptr %58, i64 144
  %60 = load ptr, ptr %59, align 8, !noalias !47
  invoke void %60(ptr dead_on_unwind nonnull writable sret(%class.QVariant) align 8 %7, ptr noundef nonnull align 8 dereferenceable(16) %56, ptr noundef nonnull align 8 dereferenceable(24) %8, i32 noundef 0)
          to label %_ZNK11QModelIndex4dataEi.exit unwind label %.loopexit.split

61:                                               ; preds = %55
  call void @llvm.memset.p0.i64(ptr noundef nonnull align 8 dereferenceable(24) %7, i8 0, i64 24, i1 false), !alias.scope !47
  store i64 2, ptr %25, align 8, !alias.scope !47
  br label %_ZNK11QModelIndex4dataEi.exit

_ZNK11QModelIndex4dataEi.exit:                    ; preds = %61, %57
  %62 = load i64, ptr %26, align 8
  invoke void @_ZN9QtPrivate16QMovableArrayOpsI8QVariantE7emplaceIJS1_EEEvxDpOT_(ptr noundef nonnull align 8 dereferenceable(24) %0, i64 noundef %62, ptr noundef nonnull align 8 dereferenceable(32) %7)
          to label %_ZN5QListI8QVariantElsEOS0_.exit16 unwind label %64

_ZN5QListI8QVariantElsEOS0_.exit16:               ; preds = %_ZNK11QModelIndex4dataEi.exit
  call void @_ZN8QVariantD1Ev(ptr noundef nonnull align 8 dereferenceable(32) %7) #19
  %63 = add nuw nsw i32 %.0, 1
  br label %.preheader.split, !llvm.loop !46

64:                                               ; preds = %_ZNK11QModelIndex4dataEi.exit
  %65 = landingpad { ptr, i32 }
          cleanup
  call void @_ZN8QVariantD1Ev(ptr noundef nonnull align 8 dereferenceable(32) %7) #19
  br label %.loopexit

.loopexit17:                                      ; preds = %48, %32, %18
  ret void

.loopexit:                                        ; preds = %.loopexit.split-lp, %.loopexit.split.us, %.loopexit.split, %64, %.split.us
  %.pn = phi { ptr, i32 } [ %42, %.split.us ], [ %65, %64 ], [ %lpad.loopexit.split-lp, %.loopexit.split-lp ], [ %lpad.loopexit, %.loopexit.split ], [ %lpad.loopexit.us, %.loopexit.split.us ]
  call void @_ZN5QListI8QVariantED2Ev(ptr noundef nonnull align 8 dereferenceable(24) %0) #19
  resume { ptr, i32 } %.pn
}